; Function Attrs: nounwind uwtable
define hidden void @b2ChainShapeArray_Destroy(ptr noundef captures(none) initializes((8, 12)) %0) local_unnamed_addr #0 {
  %2 = load ptr, ptr %0, align 8, !tbaa !10
  %3 = getelementptr inbounds nuw i8, ptr %0, i64 12
  %4 = load i32, ptr %3, align 4, !tbaa !3
  %5 = mul i32 %4, 48
  tail call void @b2Free(ptr noundef %2, i32 noundef %5) #10
  tail call void @llvm.memset.p0.i64(ptr noundef nonnull align 8 dereferenceable(16) %0, i8 0, i64 16, i1 false)
  ret void
}